; Function Attrs: mustprogress uwtable
define void @_ZN6Assimp23GenVertexNormalsProcess15SetupPropertiesEPKNS_8ImporterE(ptr nocapture noundef nonnull writeonly align 8 dereferenceable(31) %this, ptr noundef nonnull %pImp) unnamed_addr #3 align 2 {
entry:
  %call = tail call noundef float @_ZNK6Assimp8Importer16GetPropertyFloatEPKcf(ptr noundef nonnull align 8 dereferenceable(8) %pImp, ptr noundef nonnull @.str, float noundef 1.750000e+02)
  %configMaxAngle = getelementptr inbounds i8, ptr %this, i64 24
  %cmp.i = fcmp ogt float %call, 1.750000e+02
  %.sroa.speculated3 = select i1 %cmp.i, float 1.750000e+02, float %call
  %cmp.i1 = fcmp olt float %.sroa.speculated3, 0.000000e+00
  %.sroa.speculated = select i1 %cmp.i1, float 0.000000e+00, float %.sroa.speculated3
  %mul = fmul float %.sroa.speculated, 0x3F91DF46A0000000
  store float %mul, ptr %configMaxAngle, align 8
  ret void
}